; Function Attrs: mustprogress nofree norecurse nosync nounwind willreturn memory(none) uwtable
define { i64, i64 } @_ZN4absl12lts_2024072210ToTimespecENS0_4TimeE(i64 %0, i32 %1) local_unnamed_addr #5 {
_ZN4absl12lts_20240722geENS0_8DurationES1_.exit.thread:
  %2 = icmp eq i32 %1, -1
  %3 = lshr i32 %1, 2
  %4 = zext nneg i32 %3 to i64
  %5 = icmp sgt i64 %0, -1
  %spec.select = select i1 %5, i64 9223372036854775807, i64 -9223372036854775808
  %spec.select49 = select i1 %5, i64 999999999, i64 0
  %.sroa.046.0 = select i1 %2, i64 %spec.select, i64 %0
  %.sroa.5.0 = select i1 %2, i64 %spec.select49, i64 %4
  %.fca.0.insert = insertvalue { i64, i64 } poison, i64 %.sroa.046.0, 0
  %.fca.1.insert = insertvalue { i64, i64 } %.fca.0.insert, i64 %.sroa.5.0, 1
  ret { i64, i64 } %.fca.1.insert
}